; Function Attrs: nounwind sspstrong uwtable
define internal i64 @range_to_s(i64 noundef %0) #0 {
  %2 = inttoptr i64 %0 to ptr
  %3 = getelementptr inbounds nuw i8, ptr %2, i64 16
  %4 = load i64, ptr %3, align 8, !tbaa !13
  %5 = tail call i64 @rb_obj_as_string(i64 noundef %4) #13
  %6 = load i64, ptr %2, align 8, !tbaa !11
  %7 = and i64 %6, 1040384
  %.not.i.i.i = icmp eq i64 %7, 0
  br i1 %.not.i.i.i, label %8, label %RANGE_END.exit

8:                                                ; preds = %1
  %9 = getelementptr inbounds nuw i8, ptr %2, i64 24
  %10 = load ptr, ptr %9, align 8, !tbaa !13
  br label %RANGE_END.exit

RANGE_END.exit:                                   ; preds = %1, %8
  %.0.i.i.i = phi ptr [ %10, %8 ], [ %3, %1 ]
  %11 = getelementptr i8, ptr %.0.i.i.i, i64 8
  %12 = load i64, ptr %11, align 8, !tbaa !7
  %13 = tail call i64 @rb_obj_as_string(i64 noundef %12) #13
  %14 = tail call i64 @rb_str_dup(i64 noundef %5) #13
  %15 = load i64, ptr %2, align 8, !tbaa !11
  %16 = and i64 %15, 1040384
  %.not.i.i.i8 = icmp eq i64 %16, 0
  br i1 %.not.i.i.i8, label %17, label %RANGE_EXCL.exit

17:                                               ; preds = %RANGE_END.exit
  %18 = getelementptr inbounds nuw i8, ptr %2, i64 24
  %19 = load ptr, ptr %18, align 8, !tbaa !13
  br label %RANGE_EXCL.exit

RANGE_EXCL.exit:                                  ; preds = %RANGE_END.exit, %17
  %.0.i.i.i9 = phi ptr [ %19, %17 ], [ %3, %RANGE_END.exit ]
  %20 = getelementptr i8, ptr %.0.i.i.i9, i64 16
  %21 = load i64, ptr %20, align 8, !tbaa !7
  %22 = and i64 %21, -5
  %.not = icmp eq i64 %22, 0
  %23 = select i1 %.not, i64 2, i64 3
  %24 = tail call i64 @rb_str_cat(i64 noundef %14, ptr noundef nonnull @.str.58, i64 noundef %23) #13
  %25 = tail call i64 @rb_str_append(i64 noundef %14, i64 noundef %13) #13
  ret i64 %14
}